Certificate:
    Data:
        Version: 3 (0x2)
        Serial Number: 1 (0x1)
        Signature Algorithm: sha256WithRSAEncryption
        Issuer: C=CN, ST=GD, L=GZ, O=ZHD, OU=RD, CN=zhoudd/emailAddress=15019442511@126.com
        Validity
            Not Before: Dec 18 09:25:50 2020 GMT
            Not After : Dec 18 09:25:50 2021 GMT
        Subject: C=CN, ST=GD, L=GZ, O=ZHD, OU=RD, CN=8.134.56.226/emailAddress=15019442511@126.com
        Subject Public Key Info:
            Public Key Algorithm: rsaEncryption
                RSA Public-Key: (4096 bit)
                Modulus:
                    00:bc:57:e4:34:3f:d2:40:d0:c4:5b:a8:a5:a7:21:
                    5d:fe:23:b8:48:d8:59:7d:78:99:bd:2a:48:23:74:
                    de:5b:47:86:2e:a1:3d:86:98:2f:e2:a9:74:22:a2:
                    96:d2:fe:2e:28:5f:d6:8c:7a:38:11:43:06:e4:1a:
                    ef:ce:5e:d6:41:35:cc:ac:2c:f1:a6:1c:2f:28:d8:
                    74:de:38:ca:34:7b:eb:aa:92:bd:35:e3:4e:0d:fd:
                    57:3e:a1:14:53:e5:22:79:82:55:6e:d8:4f:e1:b7:
                    b9:c7:21:d2:b6:cd:57:01:e2:79:d7:39:76:eb:dd:
                    49:42:77:02:cf:7a:f3:11:39:77:e7:22:09:0f:fa:
                    21:0a:31:d7:ac:82:48:ba:10:64:f5:ef:e9:d1:62:
                    33:43:9c:00:b7:ab:f4:a5:9f:3f:94:62:4f:b4:41:
                    20:92:7f:36:e3:05:74:db:bd:de:52:b7:af:0a:ad:
                    03:db:53:41:fa:0b:22:7d:65:f3:77:8d:1c:ac:33:
                    fc:8f:31:5a:96:a8:55:2b:3f:b7:4f:b4:12:6c:ac:
                    8a:15:ef:e5:3c:13:16:db:b4:f2:fb:69:ea:9c:cc:
                    ba:4c:07:95:ea:35:b1:bb:e6:0c:78:cf:f0:81:bd:
                    d4:f0:e9:2b:61:35:41:13:5b:43:ea:37:5c:98:d2:
                    fa:28:e1:9b:b2:79:c3:3f:d9:91:0d:ef:86:72:e8:
                    bb:e0:fb:01:48:7d:27:85:a8:d4:0d:25:8d:7e:d5:
                    fe:fa:d6:87:03:6d:d4:66:83:fe:88:dc:b1:c5:c5:
                    ed:83:1d:8a:c5:0b:3f:0f:07:fc:11:bb:aa:df:75:
                    b3:2d:d2:4f:af:2c:85:19:38:ad:de:51:12:e8:ad:
                    30:e9:15:50:16:09:8e:55:82:10:0c:3e:72:6c:0b:
                    dc:bc:f4:5e:18:e2:05:bd:0e:5f:d0:e2:50:57:31:
                    c4:71:c4:f7:ec:10:83:08:b4:84:78:25:f7:30:30:
                    0f:a9:49:94:d5:8a:91:ae:d0:e9:df:3e:cc:ac:00:
                    62:59:a5:5f:71:71:94:f2:df:90:03:0d:ad:36:13:
                    b3:fc:65:a7:e8:ef:e1:e9:e4:c4:2a:60:54:cd:7e:
                    0f:34:0f:d3:6c:22:a3:5b:4e:76:62:bd:3a:59:bd:
                    6b:6d:78:c5:a5:47:f1:34:d3:3c:d7:7b:69:17:99:
                    c4:09:7b:3f:93:d4:35:b6:e9:c6:d5:51:6f:d5:69:
                    e1:7c:b2:db:fd:a9:bf:59:c9:f4:d1:82:c1:2b:74:
                    c3:e5:c5:0a:c2:0f:a8:a5:11:e8:47:ac:c2:c6:43:
                    e5:ca:2a:b6:d5:0f:04:ee:3e:a4:44:09:21:6f:bf:
                    68:95:d5
                Exponent: 65537 (0x10001)
        X509v3 extensions:
            X509v3 Authority Key Identifier: 
                keyid:E4:21:37:59:F0:49:BC:D7:71:EB:48:37:AD:87:78:99:14:9E:AB:DF

            X509v3 Extended Key Usage: 
                TLS Web Server Authentication, TLS Web Client Authentication, Microsoft Server Gated Crypto, Netscape Server Gated Crypto
            X509v3 Basic Constraints: critical
                CA:FALSE
    Signature Algorithm: sha256WithRSAEncryption
         27:6a:2d:6d:6e:51:0f:b8:ec:79:37:ee:79:e3:28:f3:b9:59:
         32:65:6f:7e:f1:81:9f:4d:f8:7c:48:50:d1:03:4a:a9:e1:ca:
         32:7a:4c:96:2d:8b:b2:fc:d5:3a:f7:73:f7:ac:81:a4:0f:35:
         f8:63:02:e0:b9:aa:4b:da:26:e9:b9:38:a2:61:d9:18:87:ce:
         26:65:e0:a0:5b:cb:7b:cf:c4:db:d4:0e:ce:22:2a:e0:79:a8:
         91:d9:98:3e:bb:13:73:01:12:35:2c:57:9c:8e:f9:cc:3c:91:
         a0:02:84:b0:22:50:36:ad:f9:77:79:03:d4:68:ae:3a:1c:0d:
         72:b7:76:46:91:bf:d2:00:6f:13:ac:9b:5f:fa:e6:79:bc:f9:
         78:6f:4b:88:23:af:83:6d:33:89:de:c2:42:6e:87:a7:db:9a:
         e0:be:c4:63:fe:12:75:d6:7a:3d:90:0d:b8:bc:64:19:65:87:
         58:64:a6:4a:7a:ff:ff:8d:28:34:62:d5:03:35:41:95:08:ac:
         a0:04:15:18:01:db:c0:b6:8a:14:a8:59:ae:67:27:47:da:92:
         a3:1a:59:39:ef:0a:66:bb:2e:d3:53:98:42:38:b7:13:f8:5a:
         9d:9e:99:5b:30:cd:75:f0:2e:61:e2:f5:d2:f6:47:29:91:5d:
         0c:c1:18:ac:e4:87:c9:10:20:38:7d:99:16:1f:ec:29:a6:19:
         08:74:81:f8:e5:9d:47:02:6f:23:aa:68:22:d0:2f:83:ba:e7:
         45:0d:19:8f:0b:b7:74:35:99:62:d1:ec:fc:74:e2:f1:97:3a:
         3c:15:b6:f6:a0:8f:ca:0c:a2:6a:9b:45:5d:b6:f7:d7:56:d1:
         80:e2:81:0d:84:e8:46:b4:77:ff:3e:de:b6:ca:f2:fd:ea:7e:
         b0:c2:6e:c0:c9:a9:b6:26:ff:ea:b9:9b:03:b1:5d:aa:3c:2e:
         39:35:3d:4e:f2:aa:64:44:a0:d5:cc:b9:8c:85:ca:be:a9:ec:
         23:08:64:f7:ce:a8:dc:9e:3e:44:b4:b0:28:f9:0c:b4:32:ab:
         e7:aa:af:9e:8a:53:b3:30:55:7e:e2:5c:18:17:45:99:37:2c:
         db:b5:ac:51:9e:77:f4:0a:52:db:ae:6c:92:e8:b4:0d:02:8d:
         53:59:da:50:14:cc:21:43:be:25:bb:62:fd:a9:12:3e:3b:aa:
         d4:a7:5b:cb:91:a4:05:90:70:d3:c3:ac:2a:e4:e1:d9:b9:03:
         97:47:e5:fe:c3:74:71:cc:97:96:52:c2:22:b7:f8:3f:d8:6c:
         22:87:06:8d:4f:03:c4:76:ed:92:ad:b7:cc:ef:23:04:b8:09:
         f7:55:72:b1:50:5c:d9:b4
-----BEGIN CERTIFICATE-----
MIIF1jCCA76gAwIBAgIBATANBgkqhkiG9w0BAQsFADB3MQswCQYDVQQGEwJDTjEL
MAkGA1UECBMCR0QxCzAJBgNVBAcTAkdaMQwwCgYDVQQKEwNaSEQxCzAJBgNVBAsT
AlJEMQ8wDQYDVQQDEwZ6aG91ZGQxIjAgBgkqhkiG9w0BCQEWEzE1MDE5NDQyNTEx
QDEyNi5jb20wHhcNMjAxMjE4MDkyNTUwWhcNMjExMjE4MDkyNTUwWjB9MQswCQYD
VQQGEwJDTjELMAkGA1UECBMCR0QxCzAJBgNVBAcTAkdaMQwwCgYDVQQKEwNaSEQx
CzAJBgNVBAsTAlJEMRUwEwYDVQQDEww4LjEzNC41Ni4yMjYxIjAgBgkqhkiG9w0B
CQEWEzE1MDE5NDQyNTExQDEyNi5jb20wggIiMA0GCSqGSIb3DQEBAQUAA4ICDwAw
ggIKAoICAQC8V+Q0P9JA0MRbqKWnIV3+I7hI2Fl9eJm9KkgjdN5bR4YuoT2GmC/i
qXQiopbS/i4oX9aMejgRQwbkGu/OXtZBNcysLPGmHC8o2HTeOMo0e+uqkr01404N
/Vc+oRRT5SJ5glVu2E/ht7nHIdK2zVcB4nnXOXbr3UlCdwLPevMROXfnIgkP+iEK
Mdesgki6EGT17+nRYjNDnAC3q/Slnz+UYk+0QSCSfzbjBXTbvd5St68KrQPbU0H6
CyJ9ZfN3jRysM/yPMVqWqFUrP7dPtBJsrIoV7+U8ExbbtPL7aeqczLpMB5XqNbG7
5gx4z/CBvdTw6SthNUETW0PqN1yY0voo4ZuyecM/2ZEN74Zy6Lvg+wFIfSeFqNQN
JY1+1f761ocDbdRmg/6I3LHFxe2DHYrFCz8PB/wRu6rfdbMt0k+vLIUZOK3eURLo
rTDpFVAWCY5VghAMPnJsC9y89F4Y4gW9Dl/Q4lBXMcRxxPfsEIMItIR4JfcwMA+p
SZTVipGu0OnfPsysAGJZpV9xcZTy35ADDa02E7P8Zafo7+Hp5MQqYFTNfg80D9Ns
IqNbTnZivTpZvWtteMWlR/E00zzXe2kXmcQJez+T1DW26cbVUW/VaeF8stv9qb9Z
yfTRgsErdMPlxQrCD6ilEehHrMLGQ+XKKrbVDwTuPqRECSFvv2iV1QIDAQABo2cw
ZTAfBgNVHSMEGDAWgBTkITdZ8Em813HrSDeth3iZFJ6r3zA0BgNVHSUELTArBggr
BgEFBQcDAQYIKwYBBQUHAwIGCisGAQQBgjcKAwMGCWCGSAGG+EIEATAMBgNVHRMB
Af8EAjAAMA0GCSqGSIb3DQEBCwUAA4ICAQAnai1tblEPuOx5N+554yjzuVkyZW9+
8YGfTfh8SFDRA0qp4coyekyWLYuy/NU693P3rIGkDzX4YwLguapL2ibpuTiiYdkY
h84mZeCgW8t7z8Tb1A7OIirgeaiR2Zg+uxNzARI1LFecjvnMPJGgAoSwIlA2rfl3
eQPUaK46HA1yt3ZGkb/SAG8TrJtf+uZ5vPl4b0uII6+DbTOJ3sJCboen25rgvsRj
/hJ11no9kA24vGQZZYdYZKZKev//jSg0YtUDNUGVCKygBBUYAdvAtooUqFmuZydH
2pKjGlk57wpmuy7TU5hCOLcT+FqdnplbMM118C5h4vXS9kcpkV0MwRis5IfJECA4
fZkWH+wpphkIdIH45Z1HAm8jqmgi0C+DuudFDRmPC7d0NZli0ez8dOLxlzo8Fbb2
oI/KDKJqm0VdtvfXVtGA4oENhOhGtHf/Pt62yvL96n6wwm7Ayam2Jv/quZsDsV2q
PC45NT1O8qpkRKDVzLmMhcq+qewjCGT3zqjcnj5EtLAo+Qy0Mqvnqq+eilOzMFV+
4lwYF0WZNyzbtaxRnnf0ClLbrmyS6LQNAo1TWdpQFMwhQ74lu2L9qRI+O6rUp1vL
kaQFkHDTw6wq5OHZuQOXR+X+w3RxzJeWUsIit/g/2GwihwaNTwPEdu2SrbfM7yME
uAn3VXKxUFzZtA==
-----END CERTIFICATE-----
